target datalayout = "e-m:e-p270:32:32-p271:32:32-p272:64:64-i64:64-i128:128-f80:128-n8:16:32:64-S128"
target triple = "x86_64-pc-linux-gnu"

%struct.H5CX_node_t = type { %struct.H5CX_t, ptr }
%struct.H5CX_t = type { i64, ptr, i64, ptr, i64, ptr, i64, ptr, i64, ptr, i64, ptr, i64, i32, i64, i8, ptr, i8, ptr, i8, i32, i8, [3 x double], i8, i64, i8, i32, i8, %struct.H5Z_cb_t, i8, ptr, i8, %struct.H5T_vlen_alloc_info_t, i8, %struct.H5T_conv_cb_t, i8, i32, i8, i8, i8, i32, i8, i8, i32, i8, i8, i32, i8, i32, i8, i64, i8, i8, i8, i8, i8, ptr, i8, ptr, i8, i32, i8, i32, i8, %struct.H5VL_connector_prop_t, i8, ptr, i8 }
%struct.H5Z_cb_t = type { ptr, ptr }
%struct.H5T_vlen_alloc_info_t = type { ptr, ptr, ptr, ptr }
%struct.H5T_conv_cb_t = type { ptr, ptr }
%struct.H5VL_connector_prop_t = type { ptr, ptr }

@H5_libinit_g = external global i8, align 1
@H5_libterm_g = external global i8, align 1
@.str = private unnamed_addr constant [97 x i8] c"generated/home/dtcxzyw/WorkSpace/Projects/compilers/llvm-opt-benchmark/bench/hdf5/hdf5/src/H5G.c\00", align 1
@H5E_FUNC_g = external global i64, align 8
@H5E_CANTINIT_g = external global i64, align 8
@.str.1 = private unnamed_addr constant [30 x i8] c"library initialization failed\00", align 1
@H5G_init_g = external global i8, align 1
@.str.2 = private unnamed_addr constant [32 x i8] c"interface initialization failed\00", align 1
@H5E_CANTSET_g = external global i64, align 8
@.str.3 = private unnamed_addr constant [22 x i8] c"can't set API context\00", align 1
@H5E_SYM_g = external global i64, align 8
@.str.7 = private unnamed_addr constant [9 x i8] c"app_file\00", align 1
@.str.8 = private unnamed_addr constant [9 x i8] c"app_func\00", align 1
@.str.9 = private unnamed_addr constant [9 x i8] c"app_line\00", align 1
@.str.10 = private unnamed_addr constant [7 x i8] c"loc_id\00", align 1
@.str.15 = private unnamed_addr constant [6 x i8] c"es_id\00", align 1
@H5E_CANTINSERT_g = external global i64, align 8
@.str.17 = private unnamed_addr constant [34 x i8] c"can't insert token into event set\00", align 1
@H5E_CANTGET_g = external global i64, align 8
@__func__.H5Gget_info_async = private unnamed_addr constant [18 x i8] c"H5Gget_info_async\00", align 1
@.str.31 = private unnamed_addr constant [40 x i8] c"unable to asynchronously get group info\00", align 1
@.str.32 = private unnamed_addr constant [12 x i8] c"*s*sIui*GIi\00", align 1
@.str.33 = private unnamed_addr constant [11 x i8] c"group_info\00", align 1

; Function Attrs: nounwind uwtable
define i32 @H5Gget_info_async(ptr noundef %0, ptr noundef %1, i32 noundef %2, i64 noundef %3, ptr noundef %4, i64 noundef %5) #0 {
  %7 = alloca ptr, align 8
  %8 = alloca ptr, align 8
  %9 = alloca i32, align 4
  %10 = alloca i64, align 8
  %11 = alloca ptr, align 8
  %12 = alloca i64, align 8
  %13 = alloca ptr, align 8
  %14 = alloca ptr, align 8
  %15 = alloca ptr, align 8
  %16 = alloca i32, align 4
  %17 = alloca %struct.H5CX_node_t, align 8
  %18 = alloca i8, align 1
  %19 = alloca i8, align 1
  store ptr %0, ptr %7, align 8, !tbaa !7
  store ptr %1, ptr %8, align 8, !tbaa !7
  store i32 %2, ptr %9, align 4, !tbaa !20
  store i64 %3, ptr %10, align 8, !tbaa !3
  store ptr %4, ptr %11, align 8, !tbaa !27
  store i64 %5, ptr %12, align 8, !tbaa !3
  call void @llvm.lifetime.start.p0(i64 8, ptr %13) #5
  store ptr null, ptr %13, align 8, !tbaa !17
  call void @llvm.lifetime.start.p0(i64 8, ptr %14) #5
  store ptr null, ptr %14, align 8, !tbaa !14
  call void @llvm.lifetime.start.p0(i64 8, ptr %15) #5
  store ptr null, ptr %15, align 8, !tbaa !14
  call void @llvm.lifetime.start.p0(i64 4, ptr %16) #5
  store i32 0, ptr %16, align 4, !tbaa !20
  call void @llvm.lifetime.start.p0(i64 480, ptr %17) #5
  call void @llvm.memset.p0.i64(ptr align 8 %17, i8 0, i64 480, i1 false)
  call void @llvm.lifetime.start.p0(i64 1, ptr %18) #5
  store i8 0, ptr %18, align 1, !tbaa !10
  call void @llvm.lifetime.start.p0(i64 1, ptr %19) #5
  store i8 0, ptr %19, align 1, !tbaa !10
  br label %20

20:                                               ; preds = %6
  %21 = load i8, ptr @H5_libinit_g, align 1, !tbaa !10, !range !12, !noundef !13
  %22 = trunc i8 %21 to i1
  br i1 %22, label %27, label %23

23:                                               ; preds = %20
  %24 = load i8, ptr @H5_libterm_g, align 1, !tbaa !10, !range !12, !noundef !13
  %25 = trunc i8 %24 to i1
  %26 = xor i1 %25, true
  br label %27

27:                                               ; preds = %23, %20
  %28 = phi i1 [ false, %20 ], [ %26, %23 ]
  %29 = xor i1 %28, true
  %30 = xor i1 %29, true
  %31 = zext i1 %30 to i32
  %32 = sext i32 %31 to i64
  %33 = call i64 @llvm.expect.i64(i64 %32, i64 0)
  %34 = icmp ne i64 %33, 0
  br i1 %34, label %35, label %64

35:                                               ; preds = %27
  %36 = call i32 @H5_init_library()
  %37 = icmp slt i32 %36, 0
  %38 = xor i1 %37, true
  %39 = xor i1 %38, true
  %40 = zext i1 %39 to i32
  %41 = sext i32 %40 to i64
  %42 = call i64 @llvm.expect.i64(i64 %41, i64 0)
  %43 = icmp ne i64 %42, 0
  br i1 %43, label %44, label %63

44:                                               ; preds = %35
  br label %45

45:                                               ; preds = %44
  br label %46

46:                                               ; preds = %45
  br label %47

47:                                               ; preds = %46
  %48 = load i64, ptr @H5E_FUNC_g, align 8, !tbaa !3
  %49 = load i64, ptr @H5E_CANTINIT_g, align 8, !tbaa !3
  %50 = call i32 (ptr, ptr, i32, i64, i64, ptr, ...) @H5E_printf_stack(ptr noundef @.str, ptr noundef @__func__.H5Gget_info_async, i32 noundef 614, i64 noundef %48, i64 noundef %49, ptr noundef @.str.1)
  br label %51

51:                                               ; preds = %47
  br label %52

52:                                               ; preds = %51
  store i8 1, ptr %19, align 1, !tbaa !10
  %53 = load i8, ptr %19, align 1, !tbaa !10, !range !12, !noundef !13
  %54 = trunc i8 %53 to i1
  %55 = zext i1 %54 to i8
  store i8 %55, ptr %19, align 1, !tbaa !10
  br label %56

56:                                               ; preds = %52
  br label %57

57:                                               ; preds = %56
  br label %58

58:                                               ; preds = %57
  store i32 -1, ptr %16, align 4, !tbaa !20
  br label %203

59:                                               ; No predecessors!
  br label %60

60:                                               ; preds = %59
  br label %61

61:                                               ; preds = %60
  br label %62

62:                                               ; preds = %61
  br label %63

63:                                               ; preds = %62, %35
  br label %64

64:                                               ; preds = %63, %27
  %65 = load i8, ptr @H5G_init_g, align 1, !tbaa !10, !range !12, !noundef !13
  %66 = trunc i8 %65 to i1
  br i1 %66, label %71, label %67

67:                                               ; preds = %64
  %68 = load i8, ptr @H5_libterm_g, align 1, !tbaa !10, !range !12, !noundef !13
  %69 = trunc i8 %68 to i1
  %70 = xor i1 %69, true
  br label %71

71:                                               ; preds = %67, %64
  %72 = phi i1 [ false, %64 ], [ %70, %67 ]
  %73 = xor i1 %72, true
  %74 = xor i1 %73, true
  %75 = zext i1 %74 to i32
  %76 = sext i32 %75 to i64
  %77 = call i64 @llvm.expect.i64(i64 %76, i64 0)
  %78 = icmp ne i64 %77, 0
  br i1 %78, label %79, label %102

79:                                               ; preds = %71
  store i8 1, ptr @H5G_init_g, align 1, !tbaa !10
  %80 = call i32 @H5G__init_package()
  %81 = icmp slt i32 %80, 0
  br i1 %81, label %82, label %101

82:                                               ; preds = %79
  store i8 0, ptr @H5G_init_g, align 1, !tbaa !10
  br label %83

83:                                               ; preds = %82
  br label %84

84:                                               ; preds = %83
  br label %85

85:                                               ; preds = %84
  %86 = load i64, ptr @H5E_FUNC_g, align 8, !tbaa !3
  %87 = load i64, ptr @H5E_CANTINIT_g, align 8, !tbaa !3
  %88 = call i32 (ptr, ptr, i32, i64, i64, ptr, ...) @H5E_printf_stack(ptr noundef @.str, ptr noundef @__func__.H5Gget_info_async, i32 noundef 614, i64 noundef %86, i64 noundef %87, ptr noundef @.str.2)
  br label %89

89:                                               ; preds = %85
  br label %90

90:                                               ; preds = %89
  store i8 1, ptr %19, align 1, !tbaa !10
  %91 = load i8, ptr %19, align 1, !tbaa !10, !range !12, !noundef !13
  %92 = trunc i8 %91 to i1
  %93 = zext i1 %92 to i8
  store i8 %93, ptr %19, align 1, !tbaa !10
  br label %94

94:                                               ; preds = %90
  br label %95

95:                                               ; preds = %94
  br label %96

96:                                               ; preds = %95
  store i32 -1, ptr %16, align 4, !tbaa !20
  br label %203

97:                                               ; No predecessors!
  br label %98

98:                                               ; preds = %97
  br label %99

99:                                               ; preds = %98
  br label %100

100:                                              ; preds = %99
  br label %101

101:                                              ; preds = %100, %79
  br label %102

102:                                              ; preds = %101, %71
  br label %103

103:                                              ; preds = %102
  br label %104

104:                                              ; preds = %103
  br label %105

105:                                              ; preds = %104
  %106 = call i32 @H5CX_push(ptr noundef %17)
  %107 = icmp slt i32 %106, 0
  %108 = xor i1 %107, true
  %109 = xor i1 %108, true
  %110 = zext i1 %109 to i32
  %111 = sext i32 %110 to i64
  %112 = call i64 @llvm.expect.i64(i64 %111, i64 0)
  %113 = icmp ne i64 %112, 0
  br i1 %113, label %114, label %133

114:                                              ; preds = %105
  br label %115

115:                                              ; preds = %114
  br label %116

116:                                              ; preds = %115
  br label %117

117:                                              ; preds = %116
  %118 = load i64, ptr @H5E_FUNC_g, align 8, !tbaa !3
  %119 = load i64, ptr @H5E_CANTSET_g, align 8, !tbaa !3
  %120 = call i32 (ptr, ptr, i32, i64, i64, ptr, ...) @H5E_printf_stack(ptr noundef @.str, ptr noundef @__func__.H5Gget_info_async, i32 noundef 614, i64 noundef %118, i64 noundef %119, ptr noundef @.str.3)
  br label %121

121:                                              ; preds = %117
  br label %122

122:                                              ; preds = %121
  store i8 1, ptr %19, align 1, !tbaa !10
  %123 = load i8, ptr %19, align 1, !tbaa !10, !range !12, !noundef !13
  %124 = trunc i8 %123 to i1
  %125 = zext i1 %124 to i8
  store i8 %125, ptr %19, align 1, !tbaa !10
  br label %126

126:                                              ; preds = %122
  br label %127

127:                                              ; preds = %126
  br label %128

128:                                              ; preds = %127
  store i32 -1, ptr %16, align 4, !tbaa !20
  br label %203

129:                                              ; No predecessors!
  br label %130

130:                                              ; preds = %129
  br label %131

131:                                              ; preds = %130
  br label %132

132:                                              ; preds = %131
  br label %134

133:                                              ; preds = %105
  store i8 1, ptr %18, align 1, !tbaa !10
  br label %134

134:                                              ; preds = %133, %132
  br label %135

135:                                              ; preds = %134
  br label %136

136:                                              ; preds = %135
  %137 = call i32 @H5E_clear_stack()
  %138 = load i64, ptr %12, align 8, !tbaa !3
  %139 = icmp ne i64 0, %138
  br i1 %139, label %140, label %141

140:                                              ; preds = %136
  store ptr %14, ptr %15, align 8, !tbaa !14
  br label %141

141:                                              ; preds = %140, %136
  %142 = load i64, ptr %10, align 8, !tbaa !3
  %143 = load ptr, ptr %11, align 8, !tbaa !27
  %144 = load ptr, ptr %15, align 8, !tbaa !14
  %145 = call i32 @H5G__get_info_api_common(i64 noundef %142, ptr noundef %143, ptr noundef %144, ptr noundef %13)
  %146 = icmp slt i32 %145, 0
  br i1 %146, label %147, label %166

147:                                              ; preds = %141
  br label %148

148:                                              ; preds = %147
  br label %149

149:                                              ; preds = %148
  br label %150

150:                                              ; preds = %149
  %151 = load i64, ptr @H5E_SYM_g, align 8, !tbaa !3
  %152 = load i64, ptr @H5E_CANTGET_g, align 8, !tbaa !3
  %153 = call i32 (ptr, ptr, i32, i64, i64, ptr, ...) @H5E_printf_stack(ptr noundef @.str, ptr noundef @__func__.H5Gget_info_async, i32 noundef 622, i64 noundef %151, i64 noundef %152, ptr noundef @.str.31)
  br label %154

154:                                              ; preds = %150
  br label %155

155:                                              ; preds = %154
  store i8 1, ptr %19, align 1, !tbaa !10
  %156 = load i8, ptr %19, align 1, !tbaa !10, !range !12, !noundef !13
  %157 = trunc i8 %156 to i1
  %158 = zext i1 %157 to i8
  store i8 %158, ptr %19, align 1, !tbaa !10
  br label %159

159:                                              ; preds = %155
  br label %160

160:                                              ; preds = %159
  br label %161

161:                                              ; preds = %160
  store i32 -1, ptr %16, align 4, !tbaa !20
  br label %203

162:                                              ; No predecessors!
  br label %163

163:                                              ; preds = %162
  br label %164

164:                                              ; preds = %163
  br label %165

165:                                              ; preds = %164
  br label %166

166:                                              ; preds = %165, %141
  %167 = load ptr, ptr %14, align 8, !tbaa !14
  %168 = icmp ne ptr null, %167
  br i1 %168, label %169, label %202

169:                                              ; preds = %166
  %170 = load i64, ptr %12, align 8, !tbaa !3
  %171 = load ptr, ptr %13, align 8, !tbaa !17
  %172 = call ptr @H5VL_obj_get_connector(ptr noundef %171)
  %173 = load ptr, ptr %14, align 8, !tbaa !14
  %174 = load ptr, ptr %7, align 8, !tbaa !7
  %175 = load ptr, ptr %8, align 8, !tbaa !7
  %176 = load i32, ptr %9, align 4, !tbaa !20
  %177 = load i64, ptr %10, align 8, !tbaa !3
  %178 = load ptr, ptr %11, align 8, !tbaa !27
  %179 = load i64, ptr %12, align 8, !tbaa !3
  %180 = call i32 (i64, ptr, ptr, ptr, ptr, ...) @H5ES_insert(i64 noundef %170, ptr noundef %172, ptr noundef %173, ptr noundef @__func__.H5Gget_info_async, ptr noundef @.str.32, ptr noundef @.str.7, ptr noundef %174, ptr noundef @.str.8, ptr noundef %175, ptr noundef @.str.9, i32 noundef %176, ptr noundef @.str.10, i64 noundef %177, ptr noundef @.str.33, ptr noundef %178, ptr noundef @.str.15, i64 noundef %179)
  %181 = icmp slt i32 %180, 0
  br i1 %181, label %182, label %201

182:                                              ; preds = %169
  br label %183

183:                                              ; preds = %182
  br label %184

184:                                              ; preds = %183
  br label %185

185:                                              ; preds = %184
  %186 = load i64, ptr @H5E_SYM_g, align 8, !tbaa !3
  %187 = load i64, ptr @H5E_CANTINSERT_g, align 8, !tbaa !3
  %188 = call i32 (ptr, ptr, i32, i64, i64, ptr, ...) @H5E_printf_stack(ptr noundef @.str, ptr noundef @__func__.H5Gget_info_async, i32 noundef 630, i64 noundef %186, i64 noundef %187, ptr noundef @.str.17)
  br label %189

189:                                              ; preds = %185
  br label %190

190:                                              ; preds = %189
  store i8 1, ptr %19, align 1, !tbaa !10
  %191 = load i8, ptr %19, align 1, !tbaa !10, !range !12, !noundef !13
  %192 = trunc i8 %191 to i1
  %193 = zext i1 %192 to i8
  store i8 %193, ptr %19, align 1, !tbaa !10
  br label %194

194:                                              ; preds = %190
  br label %195

195:                                              ; preds = %194
  br label %196

196:                                              ; preds = %195
  store i32 -1, ptr %16, align 4, !tbaa !20
  br label %203

197:                                              ; No predecessors!
  br label %198

198:                                              ; preds = %197
  br label %199

199:                                              ; preds = %198
  br label %200

200:                                              ; preds = %199
  br label %201

201:                                              ; preds = %200, %169
  br label %202

202:                                              ; preds = %201, %166
  br label %203

203:                                              ; preds = %202, %196, %161, %128, %96, %58
  %204 = load i8, ptr %18, align 1, !tbaa !10, !range !12, !noundef !13
  %205 = trunc i8 %204 to i1
  %206 = xor i1 %205, true
  %207 = xor i1 %206, true
  %208 = zext i1 %207 to i32
  %209 = sext i32 %208 to i64
  %210 = call i64 @llvm.expect.i64(i64 %209, i64 1)
  %211 = icmp ne i64 %210, 0
  br i1 %211, label %212, label %214

212:                                              ; preds = %203
  %213 = call i32 @H5CX_pop(i1 noundef zeroext true)
  store i8 0, ptr %18, align 1, !tbaa !10
  br label %214

214:                                              ; preds = %212, %203
  %215 = load i8, ptr %19, align 1, !tbaa !10, !range !12, !noundef !13
  %216 = trunc i8 %215 to i1
  %217 = xor i1 %216, true
  %218 = xor i1 %217, true
  %219 = zext i1 %218 to i32
  %220 = sext i32 %219 to i64
  %221 = call i64 @llvm.expect.i64(i64 %220, i64 0)
  %222 = icmp ne i64 %221, 0
  br i1 %222, label %223, label %225

223:                                              ; preds = %214
  %224 = call i32 @H5E_dump_api_stack()
  br label %225

225:                                              ; preds = %223, %214
  %226 = load i32, ptr %16, align 4, !tbaa !20
  call void @llvm.lifetime.end.p0(i64 1, ptr %19) #5
  call void @llvm.lifetime.end.p0(i64 1, ptr %18) #5
  call void @llvm.lifetime.end.p0(i64 480, ptr %17) #5
  call void @llvm.lifetime.end.p0(i64 4, ptr %16) #5
  call void @llvm.lifetime.end.p0(i64 8, ptr %15) #5
  call void @llvm.lifetime.end.p0(i64 8, ptr %14) #5
  call void @llvm.lifetime.end.p0(i64 8, ptr %13) #5
  ret i32 %226
}