; Function Attrs: nounwind uwtable
define range(i32 -1, 1) i32 @H5Gget_info_async(ptr noundef %0, ptr noundef %1, i32 noundef %2, i64 noundef %3, ptr noundef %4, i64 noundef %5) local_unnamed_addr #0 {
  %7 = alloca ptr, align 8
  %8 = alloca ptr, align 8
  %9 = alloca %struct.H5CX_node_t, align 8
  call void @llvm.lifetime.start.p0(i64 8, ptr nonnull %7) #4
  store ptr null, ptr %7, align 8, !tbaa !15
  call void @llvm.lifetime.start.p0(i64 8, ptr nonnull %8) #4
  store ptr null, ptr %8, align 8, !tbaa !19
  call void @llvm.lifetime.start.p0(i64 480, ptr nonnull %9) #4
  call void @llvm.memset.p0.i64(ptr noundef nonnull align 8 dereferenceable(480) %9, i8 0, i64 480, i1 false)
  %10 = load i8, ptr @H5_libinit_g, align 1, !tbaa !3, !range !7, !noundef !8
  %11 = trunc nuw i8 %10 to i1
  %12 = load i8, ptr @H5_libterm_g, align 1, !range !7
  %13 = trunc nuw i8 %12 to i1
  %14 = select i1 %11, i1 true, i1 %13
  br i1 %14, label %22, label %15, !prof !9

15:                                               ; preds = %6
  %16 = tail call i32 @H5_init_library() #4
  %17 = icmp slt i32 %16, 0
  br i1 %17, label %18, label %._crit_edge, !prof !10

._crit_edge:                                      ; preds = %15
  %.pre = load i8, ptr @H5_libterm_g, align 1, !range !7
  br label %22

18:                                               ; preds = %15
  %19 = load i64, ptr @H5E_FUNC_g, align 8, !tbaa !11
  %20 = load i64, ptr @H5E_CANTINIT_g, align 8, !tbaa !11
  %21 = tail call i32 (ptr, ptr, i32, i64, i64, ptr, ...) @H5E_printf_stack(ptr noundef nonnull @.str, ptr noundef nonnull @__func__.H5Gget_info_async, i32 noundef 614, i64 noundef %19, i64 noundef %20, ptr noundef nonnull @.str.1) #4
  br label %.thread30

22:                                               ; preds = %._crit_edge, %6
  %23 = phi i8 [ %.pre, %._crit_edge ], [ %12, %6 ]
  %24 = load i8, ptr @H5G_init_g, align 1, !tbaa !3, !range !7, !noundef !8
  %25 = trunc nuw i8 %24 to i1
  %26 = trunc nuw i8 %23 to i1
  %27 = select i1 %25, i1 true, i1 %26
  br i1 %27, label %35, label %28, !prof !9

28:                                               ; preds = %22
  store i8 1, ptr @H5G_init_g, align 1, !tbaa !3
  %29 = tail call i32 @H5G__init_package() #4
  %30 = icmp slt i32 %29, 0
  br i1 %30, label %31, label %35, !prof !13

31:                                               ; preds = %28
  store i8 0, ptr @H5G_init_g, align 1, !tbaa !3
  %32 = load i64, ptr @H5E_FUNC_g, align 8, !tbaa !11
  %33 = load i64, ptr @H5E_CANTINIT_g, align 8, !tbaa !11
  %34 = tail call i32 (ptr, ptr, i32, i64, i64, ptr, ...) @H5E_printf_stack(ptr noundef nonnull @.str, ptr noundef nonnull @__func__.H5Gget_info_async, i32 noundef 614, i64 noundef %32, i64 noundef %33, ptr noundef nonnull @.str.2) #4
  br label %.thread30

35:                                               ; preds = %22, %28
  %36 = call i32 @H5CX_push(ptr noundef nonnull %9) #4
  %37 = icmp slt i32 %36, 0
  br i1 %37, label %38, label %42, !prof !10

38:                                               ; preds = %35
  %39 = load i64, ptr @H5E_FUNC_g, align 8, !tbaa !11
  %40 = load i64, ptr @H5E_CANTSET_g, align 8, !tbaa !11
  %41 = call i32 (ptr, ptr, i32, i64, i64, ptr, ...) @H5E_printf_stack(ptr noundef nonnull @.str, ptr noundef nonnull @__func__.H5Gget_info_async, i32 noundef 614, i64 noundef %39, i64 noundef %40, ptr noundef nonnull @.str.3) #4
  br label %.thread30

42:                                               ; preds = %35
  %43 = call i32 @H5E_clear_stack() #4
  %.not = icmp eq i64 %5, 0
  %spec.select = select i1 %.not, ptr null, ptr %8
  %44 = call fastcc i32 @H5G__get_info_api_common(i64 noundef %3, ptr noundef %4, ptr noundef %spec.select, ptr noundef nonnull %7)
  %45 = icmp slt i32 %44, 0
  br i1 %45, label %46, label %50, !prof !14

46:                                               ; preds = %42
  %47 = load i64, ptr @H5E_SYM_g, align 8, !tbaa !11
  %48 = load i64, ptr @H5E_CANTGET_g, align 8, !tbaa !11
  %49 = call i32 (ptr, ptr, i32, i64, i64, ptr, ...) @H5E_printf_stack(ptr noundef nonnull @.str, ptr noundef nonnull @__func__.H5Gget_info_async, i32 noundef 622, i64 noundef %47, i64 noundef %48, ptr noundef nonnull @.str.31) #4
  br label %.thread36

50:                                               ; preds = %42
  %51 = load ptr, ptr %8, align 8, !tbaa !19
  %.not21 = icmp eq ptr %51, null
  br i1 %.not21, label %63, label %52

52:                                               ; preds = %50
  %53 = load ptr, ptr %7, align 8, !tbaa !15
  %54 = call ptr @H5VL_obj_get_connector(ptr noundef %53) #4
  %55 = load ptr, ptr %8, align 8, !tbaa !19
  %56 = call i32 (i64, ptr, ptr, ptr, ptr, ...) @H5ES_insert(i64 noundef %5, ptr noundef %54, ptr noundef %55, ptr noundef nonnull @__func__.H5Gget_info_async, ptr noundef nonnull @.str.32, ptr noundef nonnull @.str.7, ptr noundef %0, ptr noundef nonnull @.str.8, ptr noundef %1, ptr noundef nonnull @.str.9, i32 noundef %2, ptr noundef nonnull @.str.10, i64 noundef %3, ptr noundef nonnull @.str.33, ptr noundef %4, ptr noundef nonnull @.str.15, i64 noundef %5) #4
  %57 = icmp slt i32 %56, 0
  br i1 %57, label %58, label %63, !prof !14

58:                                               ; preds = %52
  %59 = load i64, ptr @H5E_SYM_g, align 8, !tbaa !11
  %60 = load i64, ptr @H5E_CANTINSERT_g, align 8, !tbaa !11
  %61 = call i32 (ptr, ptr, i32, i64, i64, ptr, ...) @H5E_printf_stack(ptr noundef nonnull @.str, ptr noundef nonnull @__func__.H5Gget_info_async, i32 noundef 630, i64 noundef %59, i64 noundef %60, ptr noundef nonnull @.str.17) #4
  br label %.thread36

.thread36:                                        ; preds = %58, %46
  %62 = call i32 @H5CX_pop(i1 noundef zeroext true) #4
  br label %.thread30

63:                                               ; preds = %50, %52
  %64 = call i32 @H5CX_pop(i1 noundef zeroext true) #4
  br label %66

.thread30:                                        ; preds = %38, %31, %18, %.thread36
  %65 = call i32 @H5E_dump_api_stack() #4
  br label %66

66:                                               ; preds = %63, %.thread30
  %.0192533 = phi i32 [ -1, %.thread30 ], [ 0, %63 ]
  call void @llvm.lifetime.end.p0(i64 480, ptr nonnull %9) #4
  call void @llvm.lifetime.end.p0(i64 8, ptr nonnull %8) #4
  call void @llvm.lifetime.end.p0(i64 8, ptr nonnull %7) #4
  ret i32 %.0192533
}